Certificate:
    Data:
        Version: 3 (0x2)
        Serial Number: 1 (0x1)
        Signature Algorithm: sha256WithRSAEncryption
        Issuer: C=PT, ST=Coimbra, L=Coimbra, O=DEI, OU=DEI, CN=CA_STI
        Validity
            Not Before: Mar  5 01:09:15 2024 GMT
            Not After : Mar  5 01:09:15 2025 GMT
        Subject: C=PT, ST=Coimbra, O=DEI, OU=DEI, CN=www.sti.pt
        Subject Public Key Info:
            Public Key Algorithm: rsaEncryption
                Public-Key: (2048 bit)
                Modulus:
                    00:c6:43:a5:23:e9:3e:8f:60:5c:39:5c:90:ad:51:
                    80:4b:7e:30:9c:b1:da:00:67:8d:fc:37:71:30:8a:
                    b3:aa:fa:64:91:df:5c:a2:64:fb:0f:27:38:8e:ed:
                    56:c9:56:cf:08:8c:5b:79:02:5b:b0:2c:6b:99:ab:
                    c0:99:e8:dc:25:0c:a5:ab:74:46:08:25:4a:c0:e6:
                    2f:6e:ba:9d:84:6e:cb:7a:e0:65:37:89:d4:55:62:
                    12:cf:81:94:d2:ca:ae:54:b1:ff:bb:fe:09:1f:9d:
                    d9:17:b8:81:35:20:f3:86:81:53:23:a4:e6:ae:75:
                    59:dd:ce:17:49:64:3f:f1:96:ab:42:16:74:2c:64:
                    72:20:05:11:4c:94:75:fd:21:b8:16:66:67:2d:e1:
                    d2:a6:e8:9b:a6:58:28:98:77:25:f5:36:2a:83:b7:
                    15:c4:78:55:f0:3c:12:63:98:3b:06:6d:ad:6f:18:
                    8b:a4:77:70:34:73:51:4e:4f:c4:5f:42:77:35:4c:
                    1b:13:e0:09:87:45:39:74:70:9e:b8:ef:4b:db:a5:
                    fc:03:7a:ef:cb:4d:3b:ba:b6:6c:1a:25:be:2f:6a:
                    40:ae:f1:ee:56:4d:92:e1:35:55:7f:86:cb:9d:fd:
                    02:1c:71:d7:87:50:a8:c3:d1:fa:e0:19:65:dd:b8:
                    35:c7
                Exponent: 65537 (0x10001)
        X509v3 extensions:
            X509v3 Subject Alternative Name: 
                DNS:www.sti.pt
            X509v3 Subject Key Identifier: 
                D8:80:60:F0:0F:01:65:10:B9:66:17:44:39:99:FA:83:00:B5:39:7B
            X509v3 Authority Key Identifier: 
                DirName:/C=PT/ST=Coimbra/L=Coimbra/O=DEI/OU=DEI/CN=CA_STI
                serial:12:0A:76:CD:CA:79:97:26:61:F7:2F:5A:80:E1:2C:95:E2:9F:8E:B7
    Signature Algorithm: sha256WithRSAEncryption
    Signature Value:
        60:7e:ff:5e:58:88:c5:e7:cd:98:81:99:ba:11:a0:d1:4d:ac:
        c5:b5:2a:aa:ca:8d:b2:52:59:15:b7:76:f3:a5:4c:02:98:ce:
        b3:44:a7:f9:cc:3a:a8:b1:79:52:76:6e:be:18:a5:ff:1b:a6:
        61:9f:47:93:50:3f:9f:5c:f4:6d:24:4a:d7:9d:09:43:79:d5:
        fc:a4:ea:9e:3e:b7:b9:f7:90:36:a1:46:12:b8:b4:1a:6e:86:
        33:b6:c8:1c:a5:c8:64:a8:02:65:03:c2:f2:3b:70:b8:7b:ca:
        0c:f3:23:2c:f5:50:1c:18:2e:c5:3b:63:33:91:45:3c:60:45:
        b0:38:9c:26:14:74:9e:42:4c:1f:8a:de:53:fb:5a:d3:59:a5:
        d3:06:fe:84:f3:a3:0a:0b:4e:fd:38:a6:5c:d3:b3:6b:bd:38:
        c8:21:10:bf:b5:39:b5:98:22:09:7a:5d:04:c6:b7:c3:8e:88:
        23:74:f5:a2:d0:e2:09:a8:d6:76:69:0a:48:ff:d6:04:95:6c:
        b0:0f:60:9c:19:99:33:6a:c9:65:68:1a:4f:39:b8:37:31:8d:
        70:66:1b:53:ef:36:a0:7a:37:64:a8:41:3e:d9:25:44:9a:5d:
        05:4f:e0:eb:76:d5:f1:c0:23:f9:e9:6f:47:0c:78:52:76:a9:
        0d:ba:aa:f9
-----BEGIN CERTIFICATE-----
MIID6TCCAtGgAwIBAgIBATANBgkqhkiG9w0BAQsFADBeMQswCQYDVQQGEwJQVDEQ
MA4GA1UECAwHQ29pbWJyYTEQMA4GA1UEBwwHQ29pbWJyYTEMMAoGA1UECgwDREVJ
MQwwCgYDVQQLDANERUkxDzANBgNVBAMMBkNBX1NUSTAeFw0yNDAzMDUwMTA5MTVa
Fw0yNTAzMDUwMTA5MTVaMFAxCzAJBgNVBAYTAlBUMRAwDgYDVQQIDAdDb2ltYnJh
MQwwCgYDVQQKDANERUkxDDAKBgNVBAsMA0RFSTETMBEGA1UEAwwKd3d3LnN0aS5w
dDCCASIwDQYJKoZIhvcNAQEBBQADggEPADCCAQoCggEBAMZDpSPpPo9gXDlckK1R
gEt+MJyx2gBnjfw3cTCKs6r6ZJHfXKJk+w8nOI7tVslWzwiMW3kCW7Asa5mrwJno
3CUMpat0RgglSsDmL266nYRuy3rgZTeJ1FViEs+BlNLKrlSx/7v+CR+d2Re4gTUg
84aBUyOk5q51Wd3OF0lkP/GWq0IWdCxkciAFEUyUdf0huBZmZy3h0qbom6ZYKJh3
JfU2KoO3FcR4VfA8EmOYOwZtrW8Yi6R3cDRzUU5PxF9CdzVMGxPgCYdFOXRwnrjv
S9ul/AN678tNO7q2bBolvi9qQK7x7lZNkuE1VX+Gy539Ahxx14dQqMPR+uAZZd24
NccCAwEAAaOBvzCBvDAVBgNVHREEDjAMggp3d3cuc3RpLnB0MB0GA1UdDgQWBBTY
gGDwDwFlELlmF0Q5mfqDALU5ezCBgwYDVR0jBHwweqFipGAwXjELMAkGA1UEBhMC
UFQxEDAOBgNVBAgMB0NvaW1icmExEDAOBgNVBAcMB0NvaW1icmExDDAKBgNVBAoM
A0RFSTEMMAoGA1UECwwDREVJMQ8wDQYDVQQDDAZDQV9TVEmCFBIKds3KeZcmYfcv
WoDhLJXin463MA0GCSqGSIb3DQEBCwUAA4IBAQBgfv9eWIjF582YgZm6EaDRTazF
tSqqyo2yUlkVt3bzpUwCmM6zRKf5zDqosXlSdm6+GKX/G6Zhn0eTUD+fXPRtJErX
nQlDedX8pOqePre595A2oUYSuLQaboYztsgcpchkqAJlA8LyO3C4e8oM8yMs9VAc
GC7FO2MzkUU8YEWwOJwmFHSeQkwfit5T+1rTWaXTBv6E86MKC079OKZc07NrvTjI
IRC/tTm1mCIJel0ExrfDjogjdPWi0OIJqNZ2aQpI/9YElWywD2CcGZkzasllaBpP
Obg3MY1wZhtT7zagejdkqEE+2SVEml0FT+DrdtXxwCP56W9HDHhSdqkNuqr5
-----END CERTIFICATE-----
