Certificate:
    Data:
        Version: 3 (0x2)
        Serial Number: 3 (0x3)
        Signature Algorithm: sha256WithRSAEncryption
        Issuer: C=PT, ST=Coimbra, L=Coimbra, O=DEI, OU=DEI, CN=CA_STI
        Validity
            Not Before: Mar  5 01:19:40 2024 GMT
            Not After : Mar  5 01:19:40 2025 GMT
        Subject: C=PT, ST=Coimbra, O=DEI, OU=DEI, CN=USER_BOM
        Subject Public Key Info:
            Public Key Algorithm: rsaEncryption
                Public-Key: (2048 bit)
                Modulus:
                    00:b2:03:ac:4d:90:92:e6:f9:52:03:84:ca:36:c3:
                    3f:bd:40:02:50:e1:ff:3e:e8:ee:c1:03:8a:bd:ca:
                    42:43:e5:8f:9b:f3:eb:52:bf:af:1f:02:87:1f:2c:
                    65:c8:d2:9d:bd:34:de:0a:12:70:b5:d0:db:c1:88:
                    d8:45:b6:6b:f2:30:45:ae:d1:d9:75:4a:8f:b0:aa:
                    95:d0:a9:8f:19:f4:14:8e:02:2a:5c:f8:40:3d:bf:
                    7f:da:52:c6:af:0b:c5:37:d5:15:ba:fc:9e:b6:2b:
                    7d:9a:28:66:0e:d4:45:a0:9b:cc:bd:10:9b:1c:86:
                    ef:3c:e7:54:12:00:2b:f6:53:32:dc:84:f7:60:fc:
                    4f:fd:1a:b5:85:ed:b4:44:ff:55:92:b4:dc:f8:bd:
                    25:d6:ba:8e:25:78:af:48:50:74:d0:3f:50:be:37:
                    1a:ce:70:bb:da:1f:68:07:9f:a6:74:ad:86:fb:04:
                    b9:7b:04:40:ff:bb:f8:01:7a:c8:a2:db:8d:b5:65:
                    e6:ba:26:9e:c7:7d:82:f0:4f:1d:32:f4:cc:fa:f0:
                    60:46:22:bc:4e:40:11:35:b5:a9:be:b6:51:55:6f:
                    cc:f5:7c:32:40:23:26:48:cc:58:72:85:a9:3e:c5:
                    5d:74:31:47:38:b0:c1:5c:2a:e7:12:37:5d:b8:28:
                    c0:53
                Exponent: 65537 (0x10001)
        X509v3 extensions:
            Authority Information Access: 
                OCSP - URI:http://www.stiocsp.pt:81
            X509v3 Basic Constraints: 
                CA:FALSE
            X509v3 Subject Key Identifier: 
                5E:19:A8:CF:AA:56:38:B5:95:CA:42:AF:18:A5:E6:FF:C1:5B:D0:BE
            X509v3 Authority Key Identifier: 
                DirName:/C=PT/ST=Coimbra/L=Coimbra/O=DEI/OU=DEI/CN=CA_STI
                serial:12:0A:76:CD:CA:79:97:26:61:F7:2F:5A:80:E1:2C:95:E2:9F:8E:B7
    Signature Algorithm: sha256WithRSAEncryption
    Signature Value:
        2f:46:da:ee:83:5b:52:b5:0a:57:ea:e4:44:21:1f:75:f7:f1:
        e2:61:60:55:8b:d7:e5:07:9b:22:02:4b:3c:60:31:e0:0c:f0:
        9b:7d:2d:dd:49:39:20:2c:d2:1a:c7:bf:c9:95:68:60:a3:c7:
        c7:fc:8a:2c:96:0a:33:68:dd:47:cd:84:9c:14:8d:30:a8:48:
        a2:01:b3:33:ab:ea:dc:6b:0a:83:8b:65:50:0a:a9:cc:c1:bb:
        06:32:90:ce:1a:8c:cc:f2:de:c8:4e:c4:7d:64:f5:a0:a4:8c:
        2a:d4:c2:5d:83:0c:c4:25:c1:0f:00:61:25:cf:7c:46:bf:92:
        54:41:3c:e2:1a:e9:c7:82:1c:1a:0f:e0:e3:35:9a:ef:8d:3f:
        28:8f:58:47:9a:ae:3e:22:5f:3f:58:a7:2a:14:3a:c0:fb:72:
        e6:31:79:f6:85:8e:5b:37:07:14:60:69:17:78:0c:0f:69:a2:
        4b:22:33:ab:f7:29:27:06:1c:96:de:e2:b1:5b:46:94:9a:56:
        50:0f:c9:f9:34:91:e5:d6:73:68:3b:42:24:9e:1c:98:aa:60:
        e7:d3:5b:dd:ce:8e:43:79:d8:26:37:dc:b4:56:ad:0b:c1:1c:
        dd:98:f1:b1:83:dd:22:4e:0c:11:e3:41:a9:3d:d8:81:ed:3d:
        2e:2e:72:59
-----BEGIN CERTIFICATE-----
MIIEETCCAvmgAwIBAgIBAzANBgkqhkiG9w0BAQsFADBeMQswCQYDVQQGEwJQVDEQ
MA4GA1UECAwHQ29pbWJyYTEQMA4GA1UEBwwHQ29pbWJyYTEMMAoGA1UECgwDREVJ
MQwwCgYDVQQLDANERUkxDzANBgNVBAMMBkNBX1NUSTAeFw0yNDAzMDUwMTE5NDBa
Fw0yNTAzMDUwMTE5NDBaME4xCzAJBgNVBAYTAlBUMRAwDgYDVQQIDAdDb2ltYnJh
MQwwCgYDVQQKDANERUkxDDAKBgNVBAsMA0RFSTERMA8GA1UEAwwIVVNFUl9CT00w
ggEiMA0GCSqGSIb3DQEBAQUAA4IBDwAwggEKAoIBAQCyA6xNkJLm+VIDhMo2wz+9
QAJQ4f8+6O7BA4q9ykJD5Y+b8+tSv68fAocfLGXI0p29NN4KEnC10NvBiNhFtmvy
MEWu0dl1So+wqpXQqY8Z9BSOAipc+EA9v3/aUsavC8U31RW6/J62K32aKGYO1EWg
m8y9EJschu8851QSACv2UzLchPdg/E/9GrWF7bRE/1WStNz4vSXWuo4leK9IUHTQ
P1C+NxrOcLvaH2gHn6Z0rYb7BLl7BED/u/gBesii2421Zea6Jp7HfYLwTx0y9Mz6
8GBGIrxOQBE1tam+tlFVb8z1fDJAIyZIzFhyhak+xV10MUc4sMFcKucSN124KMBT
AgMBAAGjgekwgeYwNAYIKwYBBQUHAQEEKDAmMCQGCCsGAQUFBzABhhhodHRwOi8v
d3d3LnN0aW9jc3AucHQ6ODEwCQYDVR0TBAIwADAdBgNVHQ4EFgQUXhmoz6pWOLWV
ykKvGKXm/8Fb0L4wgYMGA1UdIwR8MHqhYqRgMF4xCzAJBgNVBAYTAlBUMRAwDgYD
VQQIDAdDb2ltYnJhMRAwDgYDVQQHDAdDb2ltYnJhMQwwCgYDVQQKDANERUkxDDAK
BgNVBAsMA0RFSTEPMA0GA1UEAwwGQ0FfU1RJghQSCnbNynmXJmH3L1qA4SyV4p+O
tzANBgkqhkiG9w0BAQsFAAOCAQEAL0ba7oNbUrUKV+rkRCEfdffx4mFgVYvX5Qeb
IgJLPGAx4Azwm30t3Uk5ICzSGse/yZVoYKPHx/yKLJYKM2jdR82EnBSNMKhIogGz
M6vq3GsKg4tlUAqpzMG7BjKQzhqMzPLeyE7EfWT1oKSMKtTCXYMMxCXBDwBhJc98
Rr+SVEE84hrpx4IcGg/g4zWa740/KI9YR5quPiJfP1inKhQ6wPty5jF59oWOWzcH
FGBpF3gMD2miSyIzq/cpJwYclt7isVtGlJpWUA/J+TSR5dZzaDtCJJ4cmKpg59Nb
3c6OQ3nYJjfctFatC8Ec3ZjxsYPdIk4MEeNBqT3Yge09Li5yWQ==
-----END CERTIFICATE-----
