Certificate:
    Data:
        Version: 3 (0x2)
        Serial Number: 4 (0x4)
        Signature Algorithm: sha256WithRSAEncryption
        Issuer: C=PT, ST=Coimbra, L=Coimbra, O=DEI, OU=DEI, CN=CA_STI
        Validity
            Not Before: Mar  5 14:03:16 2024 GMT
            Not After : Mar  5 14:03:16 2025 GMT
        Subject: C=PT, ST=Coimbra, O=DEI, OU=DEI, CN=VPN_SERVER
        Subject Public Key Info:
            Public Key Algorithm: rsaEncryption
                Public-Key: (2048 bit)
                Modulus:
                    00:a9:be:6f:8a:4d:6c:e4:e3:e5:7b:06:14:61:1a:
                    ce:92:f4:88:79:bf:b8:3f:97:f7:7c:dc:fb:b6:4b:
                    a7:8a:8c:5b:f1:fb:0b:4d:6d:3b:64:68:cb:88:ab:
                    2d:05:b4:35:c4:82:88:70:5e:f6:2b:c0:7f:19:42:
                    e3:09:52:71:d7:d1:72:95:97:ad:20:fa:02:b8:81:
                    95:e4:31:9c:96:e5:41:26:64:8e:6a:33:1f:aa:f1:
                    48:b7:05:0d:f2:81:b7:22:94:31:e8:9d:c9:c3:2f:
                    4b:f3:69:fb:cb:46:f5:d2:b9:2c:02:30:8e:52:5f:
                    92:93:89:cf:05:44:f9:5c:59:46:ef:23:0a:35:f0:
                    fc:a3:c6:48:d5:17:57:31:c2:1f:fd:62:62:bf:e0:
                    09:e2:b5:67:b4:0d:2e:2f:59:00:95:b7:1e:2d:27:
                    20:b9:41:5b:ba:ad:64:27:54:79:bc:07:d4:49:b4:
                    b4:be:fa:53:a7:d4:f9:51:89:a7:1b:fb:14:68:b8:
                    a3:97:f3:ae:77:6a:5f:ef:2b:f4:36:51:37:51:e6:
                    60:29:c5:b2:a1:73:67:4c:56:90:04:34:9a:0d:53:
                    b0:71:43:3a:e9:11:7f:b5:43:a0:ad:b0:36:60:e8:
                    b4:7c:fd:5b:ba:a7:17:87:9b:e2:fe:30:53:77:c3:
                    2e:1d
                Exponent: 65537 (0x10001)
        X509v3 extensions:
            Authority Information Access: 
                OCSP - URI:http://www.stiocsp.pt:81
            X509v3 Basic Constraints: 
                CA:FALSE
            X509v3 Subject Key Identifier: 
                14:83:99:4B:0D:9F:DA:66:2E:2F:45:09:B8:37:8F:90:79:7D:59:1D
            X509v3 Authority Key Identifier: 
                DirName:/C=PT/ST=Coimbra/L=Coimbra/O=DEI/OU=DEI/CN=CA_STI
                serial:12:0A:76:CD:CA:79:97:26:61:F7:2F:5A:80:E1:2C:95:E2:9F:8E:B7
    Signature Algorithm: sha256WithRSAEncryption
    Signature Value:
        9d:7e:73:df:c9:e4:8e:eb:db:95:0d:20:6d:14:f3:b5:41:3e:
        58:d9:20:c6:9b:a2:75:b9:ab:2f:ab:80:d7:f4:d0:df:f7:15:
        6e:2c:1d:56:7c:59:db:5a:50:ac:1b:d3:b4:4b:93:af:27:22:
        8e:c8:88:cb:3b:47:e4:45:c6:ea:a4:3d:9e:84:2e:a2:90:8a:
        f2:69:c7:1d:96:8e:de:47:27:cd:d2:1e:a9:65:9c:73:4b:75:
        4c:6a:94:4e:57:d8:6a:e6:0f:1d:11:99:9b:60:a6:11:e0:25:
        e5:cc:05:36:9b:49:65:a1:05:95:94:ed:e9:10:c7:52:5f:f9:
        09:c1:76:3a:66:66:9c:38:40:c6:9f:6c:3a:4a:2c:4e:98:93:
        5e:e5:c1:c0:e6:d1:92:37:89:17:0e:2a:87:d4:42:df:e8:80:
        39:a9:13:1c:60:fe:43:e4:7c:e3:94:2e:c8:b0:6c:e7:e5:a2:
        dc:6d:e4:4a:24:41:ae:f4:c3:bb:12:82:c6:2a:fb:9f:a9:6f:
        13:9f:a4:44:d4:24:d9:9c:63:dd:a9:6e:03:0d:e0:ba:81:a6:
        c4:73:12:ab:e9:9f:87:6d:c7:8a:05:13:31:7a:60:19:32:1a:
        9e:48:4e:ca:61:ec:d4:dd:36:54:d9:51:4a:31:73:f4:81:42:
        c9:3a:1f:6e
-----BEGIN CERTIFICATE-----
MIIEEzCCAvugAwIBAgIBBDANBgkqhkiG9w0BAQsFADBeMQswCQYDVQQGEwJQVDEQ
MA4GA1UECAwHQ29pbWJyYTEQMA4GA1UEBwwHQ29pbWJyYTEMMAoGA1UECgwDREVJ
MQwwCgYDVQQLDANERUkxDzANBgNVBAMMBkNBX1NUSTAeFw0yNDAzMDUxNDAzMTZa
Fw0yNTAzMDUxNDAzMTZaMFAxCzAJBgNVBAYTAlBUMRAwDgYDVQQIDAdDb2ltYnJh
MQwwCgYDVQQKDANERUkxDDAKBgNVBAsMA0RFSTETMBEGA1UEAwwKVlBOX1NFUlZF
UjCCASIwDQYJKoZIhvcNAQEBBQADggEPADCCAQoCggEBAKm+b4pNbOTj5XsGFGEa
zpL0iHm/uD+X93zc+7ZLp4qMW/H7C01tO2Roy4irLQW0NcSCiHBe9ivAfxlC4wlS
cdfRcpWXrSD6AriBleQxnJblQSZkjmozH6rxSLcFDfKBtyKUMeidycMvS/Np+8tG
9dK5LAIwjlJfkpOJzwVE+VxZRu8jCjXw/KPGSNUXVzHCH/1iYr/gCeK1Z7QNLi9Z
AJW3Hi0nILlBW7qtZCdUebwH1Em0tL76U6fU+VGJpxv7FGi4o5fzrndqX+8r9DZR
N1HmYCnFsqFzZ0xWkAQ0mg1TsHFDOukRf7VDoK2wNmDotHz9W7qnF4eb4v4wU3fD
Lh0CAwEAAaOB6TCB5jA0BggrBgEFBQcBAQQoMCYwJAYIKwYBBQUHMAGGGGh0dHA6
Ly93d3cuc3Rpb2NzcC5wdDo4MTAJBgNVHRMEAjAAMB0GA1UdDgQWBBQUg5lLDZ/a
Zi4vRQm4N4+QeX1ZHTCBgwYDVR0jBHwweqFipGAwXjELMAkGA1UEBhMCUFQxEDAO
BgNVBAgMB0NvaW1icmExEDAOBgNVBAcMB0NvaW1icmExDDAKBgNVBAoMA0RFSTEM
MAoGA1UECwwDREVJMQ8wDQYDVQQDDAZDQV9TVEmCFBIKds3KeZcmYfcvWoDhLJXi
n463MA0GCSqGSIb3DQEBCwUAA4IBAQCdfnPfyeSO69uVDSBtFPO1QT5Y2SDGm6J1
uasvq4DX9NDf9xVuLB1WfFnbWlCsG9O0S5OvJyKOyIjLO0fkRcbqpD2ehC6ikIry
accdlo7eRyfN0h6pZZxzS3VMapROV9hq5g8dEZmbYKYR4CXlzAU2m0lloQWVlO3p
EMdSX/kJwXY6ZmacOEDGn2w6SixOmJNe5cHA5tGSN4kXDiqH1ELf6IA5qRMcYP5D
5HzjlC7IsGzn5aLcbeRKJEGu9MO7EoLGKvufqW8Tn6RE1CTZnGPdqW4DDeC6gabE
cxKr6Z+HbceKBRMxemAZMhqeSE7KYezU3TZU2VFKMXP0gULJOh9u
-----END CERTIFICATE-----
