Certificate:
    Data:
        Version: 3 (0x2)
        Serial Number: 5 (0x5)
        Signature Algorithm: sha256WithRSAEncryption
        Issuer: C=PT, ST=Coimbra, L=Coimbra, O=DEI, OU=DEI, CN=CA_STI
        Validity
            Not Before: Mar  5 14:11:01 2024 GMT
            Not After : Mar  5 14:11:01 2025 GMT
        Subject: C=PT, ST=Coimbra, O=DEI, OU=DEI, CN=VPN_CLIENT
        Subject Public Key Info:
            Public Key Algorithm: rsaEncryption
                Public-Key: (2048 bit)
                Modulus:
                    00:a0:dc:6d:65:23:d7:73:ba:5b:56:ed:2e:1f:4b:
                    87:14:e1:b0:48:52:66:74:c9:39:f4:a6:39:65:23:
                    e3:ac:85:57:38:ef:e6:fe:04:4f:95:70:de:d1:31:
                    84:d8:e6:94:51:52:84:43:a7:09:65:1c:78:8a:9b:
                    74:52:38:68:15:fe:6b:c0:97:f4:42:69:8f:3c:da:
                    af:39:49:da:74:4f:c3:10:53:5d:61:e4:4f:96:c0:
                    ec:ee:36:de:68:d1:d1:f4:5c:08:12:33:c1:cd:8b:
                    67:73:4b:aa:fc:d2:c5:0c:60:9d:11:f6:12:44:c0:
                    a7:de:01:9f:d6:44:bb:2c:10:43:10:c4:7f:27:96:
                    cf:49:60:1f:47:4b:58:3b:4c:b0:dc:c9:1d:fe:5b:
                    f8:50:31:5c:ee:bd:e8:8d:74:3c:34:c9:f2:a5:65:
                    25:19:7d:4d:13:d6:ae:b1:a2:ea:85:bd:15:f9:45:
                    7d:a3:2c:3a:8a:87:d3:03:e8:81:94:87:d5:92:2d:
                    32:7a:48:76:9a:d2:b3:e6:26:24:73:94:8b:68:2d:
                    68:27:70:aa:db:7d:d2:96:6a:f1:6c:e3:89:06:79:
                    63:e4:c2:b0:b6:1e:72:f5:18:6a:51:1e:8b:bc:d5:
                    c5:04:7a:d6:5a:1b:e3:fe:dc:64:10:e2:c0:43:22:
                    37:cb
                Exponent: 65537 (0x10001)
        X509v3 extensions:
            Authority Information Access: 
                OCSP - URI:http://www.stiocsp.pt:81
            X509v3 Basic Constraints: 
                CA:FALSE
            X509v3 Subject Key Identifier: 
                6B:27:55:E4:B9:53:E4:45:FB:85:E5:43:74:10:21:BB:3B:C9:F0:11
            X509v3 Authority Key Identifier: 
                DirName:/C=PT/ST=Coimbra/L=Coimbra/O=DEI/OU=DEI/CN=CA_STI
                serial:12:0A:76:CD:CA:79:97:26:61:F7:2F:5A:80:E1:2C:95:E2:9F:8E:B7
    Signature Algorithm: sha256WithRSAEncryption
    Signature Value:
        43:ef:e7:9d:1c:e0:00:a9:32:ca:d4:af:39:9a:1d:8a:dc:24:
        ac:94:16:69:e6:76:a9:f2:90:18:3b:4f:b3:cc:54:48:03:dc:
        22:31:e7:89:41:75:38:c5:87:1b:40:26:9e:d0:85:95:7d:eb:
        8f:61:d5:67:ed:97:8e:4e:6b:d1:d7:a9:03:b4:16:cd:78:f8:
        a3:a5:46:0f:01:dd:95:32:b5:8d:28:0c:70:42:cf:a3:a4:cf:
        cb:d7:f7:8c:15:9e:e1:89:f6:94:b8:f7:6b:3a:3a:de:e1:25:
        b7:1d:55:fa:c6:cd:3b:f1:ec:29:7d:3d:7b:86:f0:5f:4e:4e:
        d5:00:89:a1:1a:23:2b:78:14:54:f5:9e:5f:6a:c0:45:9b:38:
        b1:27:4c:fd:5b:25:1d:87:f3:07:a3:73:03:ae:70:6e:88:ae:
        07:6c:f6:78:01:e0:d9:da:78:16:e8:26:53:75:46:4a:cd:20:
        e0:f0:7b:de:e7:43:8f:cd:5b:85:75:0f:4f:42:64:a1:76:75:
        b4:df:44:8c:88:7c:7a:4d:b0:b6:5b:1f:ef:0a:cd:b9:5d:4d:
        4e:80:66:9f:6c:30:0d:18:aa:9a:b1:14:7c:43:a1:56:51:56:
        5d:16:06:42:b2:e2:f3:79:c4:46:44:bb:98:b8:2b:59:a5:37:
        2c:2f:db:ef
-----BEGIN CERTIFICATE-----
MIIEEzCCAvugAwIBAgIBBTANBgkqhkiG9w0BAQsFADBeMQswCQYDVQQGEwJQVDEQ
MA4GA1UECAwHQ29pbWJyYTEQMA4GA1UEBwwHQ29pbWJyYTEMMAoGA1UECgwDREVJ
MQwwCgYDVQQLDANERUkxDzANBgNVBAMMBkNBX1NUSTAeFw0yNDAzMDUxNDExMDFa
Fw0yNTAzMDUxNDExMDFaMFAxCzAJBgNVBAYTAlBUMRAwDgYDVQQIDAdDb2ltYnJh
MQwwCgYDVQQKDANERUkxDDAKBgNVBAsMA0RFSTETMBEGA1UEAwwKVlBOX0NMSUVO
VDCCASIwDQYJKoZIhvcNAQEBBQADggEPADCCAQoCggEBAKDcbWUj13O6W1btLh9L
hxThsEhSZnTJOfSmOWUj46yFVzjv5v4ET5Vw3tExhNjmlFFShEOnCWUceIqbdFI4
aBX+a8CX9EJpjzzarzlJ2nRPwxBTXWHkT5bA7O423mjR0fRcCBIzwc2LZ3NLqvzS
xQxgnRH2EkTAp94Bn9ZEuywQQxDEfyeWz0lgH0dLWDtMsNzJHf5b+FAxXO696I10
PDTJ8qVlJRl9TRPWrrGi6oW9FflFfaMsOoqH0wPogZSH1ZItMnpIdprSs+YmJHOU
i2gtaCdwqtt90pZq8WzjiQZ5Y+TCsLYecvUYalEei7zVxQR61lob4/7cZBDiwEMi
N8sCAwEAAaOB6TCB5jA0BggrBgEFBQcBAQQoMCYwJAYIKwYBBQUHMAGGGGh0dHA6
Ly93d3cuc3Rpb2NzcC5wdDo4MTAJBgNVHRMEAjAAMB0GA1UdDgQWBBRrJ1XkuVPk
RfuF5UN0ECG7O8nwETCBgwYDVR0jBHwweqFipGAwXjELMAkGA1UEBhMCUFQxEDAO
BgNVBAgMB0NvaW1icmExEDAOBgNVBAcMB0NvaW1icmExDDAKBgNVBAoMA0RFSTEM
MAoGA1UECwwDREVJMQ8wDQYDVQQDDAZDQV9TVEmCFBIKds3KeZcmYfcvWoDhLJXi
n463MA0GCSqGSIb3DQEBCwUAA4IBAQBD7+edHOAAqTLK1K85mh2K3CSslBZp5nap
8pAYO0+zzFRIA9wiMeeJQXU4xYcbQCae0IWVfeuPYdVn7ZeOTmvR16kDtBbNePij
pUYPAd2VMrWNKAxwQs+jpM/L1/eMFZ7hifaUuPdrOjre4SW3HVX6xs078ewpfT17
hvBfTk7VAImhGiMreBRU9Z5fasBFmzixJ0z9WyUdh/MHo3MDrnBuiK4HbPZ4AeDZ
2ngW6CZTdUZKzSDg8Hve50OPzVuFdQ9PQmShdnW030SMiHx6TbC2Wx/vCs25XU1O
gGafbDANGKqasRR8Q6FWUVZdFgZCsuLzecRGRLuYuCtZpTcsL9vv
-----END CERTIFICATE-----
