Certificate:
    Data:
        Version: 3 (0x2)
        Serial Number: 6 (0x6)
        Signature Algorithm: sha256WithRSAEncryption
        Issuer: C=PT, ST=Coimbra, L=Coimbra, O=DEI, OU=DEI, CN=CA_STI
        Validity
            Not Before: Mar  5 14:15:12 2024 GMT
            Not After : Mar  5 14:15:12 2025 GMT
        Subject: C=PT, ST=Coimbra, O=DEI, OU=DEI, CN=APACHE_CLIENT_GOOD_2VM
        Subject Public Key Info:
            Public Key Algorithm: rsaEncryption
                Public-Key: (2048 bit)
                Modulus:
                    00:cb:f9:14:38:b3:36:ce:4b:77:5e:ad:2a:bf:c7:
                    2d:20:28:69:0f:cc:8e:39:fb:77:97:6f:e1:cf:63:
                    b9:8f:ed:ac:b5:d1:c8:e5:4c:90:0f:bd:c7:f1:09:
                    78:75:e6:2c:c3:39:5d:a4:3a:25:28:c9:8c:5d:e2:
                    ad:92:76:58:60:96:ac:e1:0b:e2:0f:b0:cf:06:de:
                    fd:d9:02:39:72:e6:fa:29:d5:9b:c8:31:c9:d0:e2:
                    37:66:a3:7b:6e:ca:36:96:82:71:53:b4:ce:01:1d:
                    34:5c:83:78:e1:f7:3c:a2:fe:af:32:9b:75:3b:b7:
                    3e:81:dd:82:c5:ca:6b:b0:1d:e1:a8:a2:e9:2a:d0:
                    92:3f:0b:d9:b5:13:96:f2:48:46:92:c0:0e:b7:88:
                    70:44:14:b9:93:67:23:20:e9:cf:73:14:f2:d1:90:
                    36:40:74:1e:d8:1b:7d:18:a4:41:f8:6d:a2:6b:62:
                    b7:ad:5a:ec:97:2b:9a:f0:9d:a1:45:fe:a4:cd:b3:
                    12:38:a3:42:08:83:1e:3e:d4:ba:41:1b:65:f9:44:
                    bf:ed:0f:5b:69:c2:97:8e:e3:93:a6:2f:d6:f6:70:
                    b9:0d:6c:64:72:d4:2e:6f:1d:97:c3:8a:4e:21:15:
                    b7:5e:ed:3d:e7:47:66:f2:60:ac:3a:90:e7:f4:05:
                    9a:f7
                Exponent: 65537 (0x10001)
        X509v3 extensions:
            Authority Information Access: 
                OCSP - URI:http://www.stiocsp.pt:81
            X509v3 Basic Constraints: 
                CA:FALSE
            X509v3 Subject Key Identifier: 
                4C:CB:43:22:C0:90:58:0E:C8:94:23:D6:09:49:29:37:48:FC:DD:20
            X509v3 Authority Key Identifier: 
                DirName:/C=PT/ST=Coimbra/L=Coimbra/O=DEI/OU=DEI/CN=CA_STI
                serial:12:0A:76:CD:CA:79:97:26:61:F7:2F:5A:80:E1:2C:95:E2:9F:8E:B7
    Signature Algorithm: sha256WithRSAEncryption
    Signature Value:
        56:c3:bc:df:f6:d5:65:3a:13:14:43:c5:1f:57:65:19:44:80:
        7c:72:36:b5:3d:d0:3f:62:be:41:23:6c:91:6e:76:ae:73:11:
        31:2e:ee:4f:5c:7f:3d:ac:52:7e:c5:3a:ab:cb:c8:c8:04:9c:
        45:29:0e:eb:31:47:31:d1:b1:53:93:3b:03:00:3a:4e:09:ea:
        d0:1c:55:86:43:65:d4:2a:0e:13:59:ac:a2:a0:89:4c:3b:aa:
        22:93:b9:9d:1f:aa:52:30:32:5f:3f:6e:35:a1:1b:64:62:bb:
        6c:4a:aa:ee:c5:23:af:bb:be:28:4e:97:c0:1b:36:a3:90:d7:
        bd:0f:00:7a:ab:10:ac:cc:d8:04:fb:39:e3:1c:be:85:6d:f6:
        e4:ba:46:01:6d:ec:b7:05:56:cd:7d:a2:9f:e5:fc:ef:98:2b:
        ec:c0:5e:67:1a:2a:ec:47:56:d7:d8:ac:3a:9d:7f:49:c6:bd:
        0c:d5:57:73:1c:95:10:13:00:6a:47:42:ce:09:39:32:6a:53:
        d5:18:d3:14:c7:c9:da:12:24:b2:3c:cd:d8:69:8f:04:17:a7:
        86:6c:53:f1:6c:fa:02:fd:51:1e:79:58:b3:5a:b3:58:29:30:
        7e:8c:83:f0:38:74:21:22:d4:cf:2b:22:18:a1:cb:41:27:c8:
        b7:3c:fa:84
-----BEGIN CERTIFICATE-----
MIIEHzCCAwegAwIBAgIBBjANBgkqhkiG9w0BAQsFADBeMQswCQYDVQQGEwJQVDEQ
MA4GA1UECAwHQ29pbWJyYTEQMA4GA1UEBwwHQ29pbWJyYTEMMAoGA1UECgwDREVJ
MQwwCgYDVQQLDANERUkxDzANBgNVBAMMBkNBX1NUSTAeFw0yNDAzMDUxNDE1MTJa
Fw0yNTAzMDUxNDE1MTJaMFwxCzAJBgNVBAYTAlBUMRAwDgYDVQQIDAdDb2ltYnJh
MQwwCgYDVQQKDANERUkxDDAKBgNVBAsMA0RFSTEfMB0GA1UEAwwWQVBBQ0hFX0NM
SUVOVF9HT09EXzJWTTCCASIwDQYJKoZIhvcNAQEBBQADggEPADCCAQoCggEBAMv5
FDizNs5Ld16tKr/HLSAoaQ/Mjjn7d5dv4c9juY/trLXRyOVMkA+9x/EJeHXmLMM5
XaQ6JSjJjF3irZJ2WGCWrOEL4g+wzwbe/dkCOXLm+inVm8gxydDiN2aje27KNpaC
cVO0zgEdNFyDeOH3PKL+rzKbdTu3PoHdgsXKa7Ad4aii6SrQkj8L2bUTlvJIRpLA
DreIcEQUuZNnIyDpz3MU8tGQNkB0HtgbfRikQfhtomtit61a7JcrmvCdoUX+pM2z
EjijQgiDHj7UukEbZflEv+0PW2nCl47jk6Yv1vZwuQ1sZHLULm8dl8OKTiEVt17t
PedHZvJgrDqQ5/QFmvcCAwEAAaOB6TCB5jA0BggrBgEFBQcBAQQoMCYwJAYIKwYB
BQUHMAGGGGh0dHA6Ly93d3cuc3Rpb2NzcC5wdDo4MTAJBgNVHRMEAjAAMB0GA1Ud
DgQWBBRMy0MiwJBYDsiUI9YJSSk3SPzdIDCBgwYDVR0jBHwweqFipGAwXjELMAkG
A1UEBhMCUFQxEDAOBgNVBAgMB0NvaW1icmExEDAOBgNVBAcMB0NvaW1icmExDDAK
BgNVBAoMA0RFSTEMMAoGA1UECwwDREVJMQ8wDQYDVQQDDAZDQV9TVEmCFBIKds3K
eZcmYfcvWoDhLJXin463MA0GCSqGSIb3DQEBCwUAA4IBAQBWw7zf9tVlOhMUQ8Uf
V2UZRIB8cja1PdA/Yr5BI2yRbnaucxExLu5PXH89rFJ+xTqry8jIBJxFKQ7rMUcx
0bFTkzsDADpOCerQHFWGQ2XUKg4TWayioIlMO6oik7mdH6pSMDJfP241oRtkYrts
SqruxSOvu74oTpfAGzajkNe9DwB6qxCszNgE+znjHL6FbfbkukYBbey3BVbNfaKf
5fzvmCvswF5nGirsR1bX2Kw6nX9Jxr0M1VdzHJUQEwBqR0LOCTkyalPVGNMUx8na
EiSyPM3YaY8EF6eGbFPxbPoC/VEeeVizWrNYKTB+jIPwOHQhItTPKyIYoctBJ8i3
PPqE
-----END CERTIFICATE-----
