Certificate:
    Data:
        Version: 3 (0x2)
        Serial Number: 8 (0x8)
        Signature Algorithm: sha256WithRSAEncryption
        Issuer: C=PT, ST=Coimbra, L=Coimbra, O=DEI, OU=DEI, CN=CA_STI
        Validity
            Not Before: Mar 11 17:16:00 2024 GMT
            Not After : Mar 11 17:16:00 2025 GMT
        Subject: C=PT, ST=Coimbra, O=DEI, OU=DEI, CN=VPN_CLIENT_BAD
        Subject Public Key Info:
            Public Key Algorithm: rsaEncryption
                Public-Key: (2048 bit)
                Modulus:
                    00:e9:35:62:09:f7:77:66:08:8a:83:88:9e:17:c2:
                    f1:8b:f7:81:fe:9f:86:13:0d:5d:b5:76:08:6c:ba:
                    f9:da:98:ca:57:41:59:f5:e0:c5:58:e5:78:e0:d2:
                    b2:df:fa:ce:56:24:9f:9e:3b:6b:62:4e:9c:d3:80:
                    bc:1d:d3:98:fb:f4:26:db:fa:ee:e6:d5:ee:43:39:
                    24:96:3a:ae:ef:a8:94:08:d6:c7:36:06:d1:81:f8:
                    a2:ac:51:f8:eb:0c:66:e6:3d:c6:e4:78:e2:fb:64:
                    90:24:fc:2d:c0:a1:64:fa:87:eb:ee:32:94:5f:25:
                    21:54:83:95:22:d0:83:52:09:52:89:55:63:6c:7c:
                    50:3b:ae:c1:49:b1:59:2c:f8:85:1d:c4:08:eb:e6:
                    e3:30:71:f1:94:ea:9a:f9:32:56:e5:5f:95:a2:79:
                    f2:66:a0:8f:6f:b7:29:27:34:47:0d:04:be:3a:16:
                    9f:50:70:e2:7c:d0:e5:a0:1d:2a:3c:a7:a5:7f:bc:
                    4f:3c:12:02:1b:f8:b7:e3:6d:9f:03:19:43:c3:94:
                    d9:ec:07:2e:28:b2:1c:21:63:ac:47:14:dc:0f:df:
                    10:51:d2:75:8f:ab:87:0d:3e:a7:e5:77:9e:c9:12:
                    82:77:12:95:33:d6:51:51:13:d5:ee:99:5c:f6:a9:
                    d0:39
                Exponent: 65537 (0x10001)
        X509v3 extensions:
            Authority Information Access: 
                OCSP - URI:http://www.stiocsp.pt:81
            X509v3 Basic Constraints: 
                CA:FALSE
            X509v3 Subject Key Identifier: 
                26:9B:DE:00:A2:5C:E1:4E:05:6B:5D:C4:BA:13:08:B3:36:CF:78:F4
            X509v3 Authority Key Identifier: 
                DirName:/C=PT/ST=Coimbra/L=Coimbra/O=DEI/OU=DEI/CN=CA_STI
                serial:12:0A:76:CD:CA:79:97:26:61:F7:2F:5A:80:E1:2C:95:E2:9F:8E:B7
    Signature Algorithm: sha256WithRSAEncryption
    Signature Value:
        44:b0:79:8d:e2:a9:bd:0b:b6:12:c0:02:b9:c3:a1:12:73:c8:
        1a:07:df:33:e9:15:56:66:b6:1f:74:42:af:a5:e8:91:2a:92:
        36:37:fd:0e:c5:76:59:29:d1:6e:d3:3d:33:f2:64:1f:d3:9e:
        58:3f:bb:7e:2f:49:6e:57:42:09:68:c4:ce:a9:4a:06:4d:46:
        88:57:90:1c:a5:c6:b7:0b:90:09:d4:c1:f8:9f:76:0d:5c:12:
        86:fc:6d:9a:a9:6b:7a:03:20:c2:4d:a9:1c:55:18:88:1d:29:
        30:f8:b0:9b:d6:fa:8e:f9:09:6e:db:0e:c5:e2:8c:51:42:d0:
        51:bf:83:fd:ae:78:b6:84:3a:5a:8e:ec:13:ae:a2:5c:86:1c:
        99:b5:21:cd:72:ea:f5:09:d1:63:a2:d8:39:c9:51:c2:2c:27:
        bd:f4:fb:0f:e2:19:c6:ce:a9:ff:c5:24:41:11:2c:f1:f6:ef:
        02:64:6c:ef:0f:f9:b1:32:00:dd:3f:35:e0:83:62:8e:c1:23:
        b0:d6:3c:63:2c:4c:da:6e:80:d9:ec:14:60:90:dd:38:81:0f:
        e7:f2:6b:20:85:95:c9:5a:b7:4a:8a:9f:df:70:2f:95:a3:e3:
        d2:cb:2c:93:de:1a:4f:74:19:00:0a:53:05:92:92:cd:34:a6:
        8e:a6:71:aa
-----BEGIN CERTIFICATE-----
MIIEFzCCAv+gAwIBAgIBCDANBgkqhkiG9w0BAQsFADBeMQswCQYDVQQGEwJQVDEQ
MA4GA1UECAwHQ29pbWJyYTEQMA4GA1UEBwwHQ29pbWJyYTEMMAoGA1UECgwDREVJ
MQwwCgYDVQQLDANERUkxDzANBgNVBAMMBkNBX1NUSTAeFw0yNDAzMTExNzE2MDBa
Fw0yNTAzMTExNzE2MDBaMFQxCzAJBgNVBAYTAlBUMRAwDgYDVQQIDAdDb2ltYnJh
MQwwCgYDVQQKDANERUkxDDAKBgNVBAsMA0RFSTEXMBUGA1UEAwwOVlBOX0NMSUVO
VF9CQUQwggEiMA0GCSqGSIb3DQEBAQUAA4IBDwAwggEKAoIBAQDpNWIJ93dmCIqD
iJ4XwvGL94H+n4YTDV21dghsuvnamMpXQVn14MVY5Xjg0rLf+s5WJJ+eO2tiTpzT
gLwd05j79Cbb+u7m1e5DOSSWOq7vqJQI1sc2BtGB+KKsUfjrDGbmPcbkeOL7ZJAk
/C3AoWT6h+vuMpRfJSFUg5Ui0INSCVKJVWNsfFA7rsFJsVks+IUdxAjr5uMwcfGU
6pr5MlblX5WiefJmoI9vtyknNEcNBL46Fp9QcOJ80OWgHSo8p6V/vE88EgIb+Lfj
bZ8DGUPDlNnsBy4oshwhY6xHFNwP3xBR0nWPq4cNPqfld57JEoJ3EpUz1lFRE9Xu
mVz2qdA5AgMBAAGjgekwgeYwNAYIKwYBBQUHAQEEKDAmMCQGCCsGAQUFBzABhhho
dHRwOi8vd3d3LnN0aW9jc3AucHQ6ODEwCQYDVR0TBAIwADAdBgNVHQ4EFgQUJpve
AKJc4U4Fa13EuhMIszbPePQwgYMGA1UdIwR8MHqhYqRgMF4xCzAJBgNVBAYTAlBU
MRAwDgYDVQQIDAdDb2ltYnJhMRAwDgYDVQQHDAdDb2ltYnJhMQwwCgYDVQQKDANE
RUkxDDAKBgNVBAsMA0RFSTEPMA0GA1UEAwwGQ0FfU1RJghQSCnbNynmXJmH3L1qA
4SyV4p+OtzANBgkqhkiG9w0BAQsFAAOCAQEARLB5jeKpvQu2EsACucOhEnPIGgff
M+kVVma2H3RCr6XokSqSNjf9DsV2WSnRbtM9M/JkH9OeWD+7fi9JbldCCWjEzqlK
Bk1GiFeQHKXGtwuQCdTB+J92DVwShvxtmqlregMgwk2pHFUYiB0pMPiwm9b6jvkJ
btsOxeKMUULQUb+D/a54toQ6Wo7sE66iXIYcmbUhzXLq9QnRY6LYOclRwiwnvfT7
D+IZxs6p/8UkQREs8fbvAmRs7w/5sTIA3T814INijsEjsNY8YyxM2m6A2ewUYJDd
OIEP5/JrIIWVyVq3Soqf33AvlaPj0sssk94aT3QZAApTBZKSzTSmjqZxqg==
-----END CERTIFICATE-----
